(i__main__
mutable_serializer_linker
p1
(dp2
S'map'
p3
NsS'current_player'
p4
NsS'current_player_index'
p5
I0
sS'highest_identifier'
p6
I0
sS'current_card'
p7
S''
sS'furball'
p8
(i__main__
furball
(dp9
S'view_wrapper'
p10
NsS'identifier'
p11
S'31946'
p12
sbsS'players'
p13
(lsS'view_wrappers'
p14
(lsS'flags'
p15
S' furball_always_tries_to_move'
sg11
S'31945'
p16
sS'beginning'
p17
Nsb.